; Function Attrs: mustprogress nofree norecurse nosync nounwind willreturn memory(read, inaccessiblemem: none) uwtable
define range(i64 0, 8589934592) i64 @_ZNK22PreprocessingAtomTypes20atomMassFromAtomTypeEi(ptr noundef nonnull readonly align 8 captures(none) dereferenceable(8) %0, i32 noundef %1) local_unnamed_addr #0 align 2 personality ptr @__gxx_personality_v0 {
  %3 = icmp sgt i32 %1, -1
  br i1 %3, label %_ZNK22PreprocessingAtomTypes5isSetEi.exit, label %_ZNK22PreprocessingAtomTypes5isSetEi.exit.thread

_ZNK22PreprocessingAtomTypes5isSetEi.exit:        ; preds = %2
  %4 = zext nneg i32 %1 to i64
  %5 = load ptr, ptr %0, align 8, !tbaa !4
  %6 = getelementptr inbounds nuw i8, ptr %5, i64 8
  %7 = load ptr, ptr %6, align 8, !tbaa !9
  %8 = load ptr, ptr %5, align 8, !tbaa !12
  %9 = ptrtoint ptr %7 to i64
  %10 = ptrtoint ptr %8 to i64
  %11 = sub i64 %9, %10
  %12 = sdiv exact i64 %11, 192
  %13 = icmp sgt i64 %12, %4
  br i1 %13, label %14, label %_ZNK22PreprocessingAtomTypes5isSetEi.exit.thread

14:                                               ; preds = %_ZNK22PreprocessingAtomTypes5isSetEi.exit
  %15 = getelementptr inbounds nuw %struct.AtomTypeData, ptr %8, i64 %4
  %16 = load i32, ptr %15, align 4, !tbaa !49
  %17 = zext i32 %16 to i64
  br label %_ZNK22PreprocessingAtomTypes5isSetEi.exit.thread

_ZNK22PreprocessingAtomTypes5isSetEi.exit.thread: ; preds = %2, %_ZNK22PreprocessingAtomTypes5isSetEi.exit, %14
  %.sroa.2.0 = phi i64 [ 4294967296, %14 ], [ 0, %_ZNK22PreprocessingAtomTypes5isSetEi.exit ], [ 0, %2 ]
  %.sroa.0.0.insert.ext = phi i64 [ %17, %14 ], [ 0, %_ZNK22PreprocessingAtomTypes5isSetEi.exit ], [ 0, %2 ]
  %.sroa.0.0.insert.insert = or disjoint i64 %.sroa.0.0.insert.ext, %.sroa.2.0
  ret i64 %.sroa.0.0.insert.insert
}